target datalayout = "e-m:e-p270:32:32-p271:32:32-p272:64:64-i64:64-i128:128-f80:128-n8:16:32:64-S128"
target triple = "x86_64-pc-linux-gnu"

%class.StatementIf = type { %class.Statement, ptr, ptr, ptr }
%class.Statement = type { ptr, i32, i32, ptr, ptr }

; Function Attrs: mustprogress uwtable
define dso_local void @_ZN11StatementIfC2EP5BlockRK10ExpressionRKS0_S6_(ptr noundef nonnull align 8 dereferenceable(56) %0, ptr noundef %1, ptr noundef nonnull align 8 dereferenceable(24) %2, ptr noundef nonnull align 8 dereferenceable(192) %3, ptr noundef nonnull align 8 dereferenceable(192) %4) unnamed_addr #4 align 2 {
  %6 = alloca ptr, align 8
  %7 = alloca ptr, align 8
  %8 = alloca ptr, align 8
  %9 = alloca ptr, align 8
  %10 = alloca ptr, align 8
  store ptr %0, ptr %6, align 8, !tbaa !51
  store ptr %1, ptr %7, align 8, !tbaa !48
  store ptr %2, ptr %8, align 8, !tbaa !41
  store ptr %3, ptr %9, align 8, !tbaa !48
  store ptr %4, ptr %10, align 8, !tbaa !48
  %11 = load ptr, ptr %6, align 8
  %12 = load ptr, ptr %7, align 8, !tbaa !48
  call void @_ZN9StatementC2E14eStatementTypeP5Block(ptr noundef nonnull align 8 dereferenceable(32) %11, i32 noundef 3, ptr noundef %12)
  store ptr getelementptr inbounds inrange(-16, 80) ({ [12 x ptr] }, ptr @_ZTV11StatementIf, i32 0, i32 0, i32 2), ptr %11, align 8, !tbaa !42
  %13 = getelementptr inbounds nuw %class.StatementIf, ptr %11, i32 0, i32 1
  %14 = load ptr, ptr %8, align 8, !tbaa !41
  store ptr %14, ptr %13, align 8, !tbaa !41
  %15 = getelementptr inbounds nuw %class.StatementIf, ptr %11, i32 0, i32 2
  %16 = load ptr, ptr %9, align 8, !tbaa !48
  store ptr %16, ptr %15, align 8, !tbaa !48
  %17 = getelementptr inbounds nuw %class.StatementIf, ptr %11, i32 0, i32 3
  %18 = load ptr, ptr %10, align 8, !tbaa !48
  store ptr %18, ptr %17, align 8, !tbaa !48
  ret void
}