; Function Attrs: mustprogress uwtable
define dso_local void @_ZN11StatementIfC2EP5BlockRK10ExpressionRKS0_S6_(ptr noundef nonnull align 8 dereferenceable(56) %0, ptr noundef %1, ptr noundef nonnull align 8 dereferenceable(24) %2, ptr noundef nonnull align 8 dereferenceable(192) %3, ptr noundef nonnull align 8 dereferenceable(192) %4) unnamed_addr #3 align 2 {
  tail call void @_ZN9StatementC2E14eStatementTypeP5Block(ptr noundef nonnull align 8 dereferenceable(32) %0, i32 noundef 3, ptr noundef %1)
  store ptr getelementptr inbounds nuw inrange(-16, 80) (i8, ptr @_ZTV11StatementIf, i64 16), ptr %0, align 8, !tbaa !49
  %6 = getelementptr inbounds nuw i8, ptr %0, i64 32
  store ptr %2, ptr %6, align 8, !tbaa !68
  %7 = getelementptr inbounds nuw i8, ptr %0, i64 40
  store ptr %3, ptr %7, align 8, !tbaa !69
  %8 = getelementptr inbounds nuw i8, ptr %0, i64 48
  store ptr %4, ptr %8, align 8, !tbaa !69
  ret void
}